; Function Attrs: nounwind uwtable
define dso_local ptr @llvm_emit_struct_gep_raw(ptr nocapture noundef readonly %0, ptr noundef %1, ptr noundef %2, i32 noundef %3, i32 noundef %4, ptr nocapture noundef writeonly %5) local_unnamed_addr #0 {
  %7 = alloca ptr, align 8
  %8 = getelementptr inbounds i8, ptr %0, i64 32
  %9 = load ptr, ptr %8, align 8
  %10 = tail call i64 @LLVMOffsetOfElement(ptr noundef %9, ptr noundef %2, i32 noundef %3) #10
  %11 = trunc i64 %10 to i32
  %12 = or i32 %11, %4
  %13 = sub i32 0, %12
  %14 = and i32 %12, %13
  store i32 %14, ptr %5, align 4
  %.not = icmp eq i32 %3, 0
  br i1 %.not, label %30, label %15

15:                                               ; preds = %6
  %16 = load ptr, ptr %8, align 8
  %17 = tail call i64 @LLVMOffsetOfElement(ptr noundef %16, ptr noundef %2, i32 noundef %3) #10
  %18 = getelementptr inbounds i8, ptr %0, i64 192
  %19 = load ptr, ptr %18, align 8
  %20 = tail call ptr @LLVMConstInt(ptr noundef %19, i64 noundef %17, i32 noundef 0) #10
  call void @llvm.lifetime.start.p0(i64 8, ptr nonnull %7)
  store ptr %20, ptr %7, align 8
  %21 = tail call i32 @LLVMIsConstant(ptr noundef %20) #10
  %.not.i.i = icmp eq i32 %21, 0
  br i1 %.not.i.i, label %24, label %22

22:                                               ; preds = %15
  %23 = tail call i32 @LLVMIsNull(ptr noundef %20) #10
  %.not10.i.i = icmp eq i32 %23, 0
  br i1 %.not10.i.i, label %24, label %llvm_emit_const_ptradd_inbounds_raw.exit

24:                                               ; preds = %22, %15
  %25 = getelementptr inbounds i8, ptr %0, i64 64
  %26 = load ptr, ptr %25, align 8
  %27 = getelementptr inbounds i8, ptr %0, i64 168
  %28 = load ptr, ptr %27, align 8
  %29 = call ptr @LLVMBuildInBoundsGEP2(ptr noundef %26, ptr noundef %28, ptr noundef %1, ptr noundef nonnull %7, i32 noundef 1, ptr noundef nonnull @.str.65) #10
  br label %llvm_emit_const_ptradd_inbounds_raw.exit

llvm_emit_const_ptradd_inbounds_raw.exit:         ; preds = %22, %24
  %.0.i.i = phi ptr [ %29, %24 ], [ %1, %22 ]
  call void @llvm.lifetime.end.p0(i64 8, ptr nonnull %7)
  br label %30

30:                                               ; preds = %6, %llvm_emit_const_ptradd_inbounds_raw.exit
  %.0 = phi ptr [ %.0.i.i, %llvm_emit_const_ptradd_inbounds_raw.exit ], [ %1, %6 ]
  ret ptr %.0
}